target datalayout = "e-m:e-p270:32:32-p271:32:32-p272:64:64-i64:64-i128:128-f80:128-n8:16:32:64-S128"
target triple = "x86_64-pc-linux-gnu"

; Function Attrs: nounwind uwtable
define i32 @GetCodepoint(ptr noundef %0, ptr noundef %1) #0 {
  %3 = alloca i32, align 4
  %4 = alloca ptr, align 8
  %5 = alloca ptr, align 8
  %6 = alloca i32, align 4
  %7 = alloca i32, align 4
  %8 = alloca i8, align 1
  %9 = alloca i32, align 4
  %10 = alloca i8, align 1
  %11 = alloca i8, align 1
  %12 = alloca i8, align 1
  %13 = alloca i8, align 1
  %14 = alloca i8, align 1
  store ptr %0, ptr %4, align 8
  store ptr %1, ptr %5, align 8
  call void @llvm.lifetime.start.p0(i64 4, ptr %6) #13
  store i32 63, ptr %6, align 4
  call void @llvm.lifetime.start.p0(i64 4, ptr %7) #13
  %15 = load ptr, ptr %4, align 8
  %16 = getelementptr inbounds i8, ptr %15, i64 0
  %17 = load i8, ptr %16, align 1
  %18 = zext i8 %17 to i32
  store i32 %18, ptr %7, align 4
  %19 = load ptr, ptr %5, align 8
  store i32 1, ptr %19, align 4
  %20 = load i32, ptr %7, align 4
  %21 = icmp sle i32 %20, 127
  br i1 %21, label %22, label %27

22:                                               ; preds = %2
  %23 = load ptr, ptr %4, align 8
  %24 = getelementptr inbounds i8, ptr %23, i64 0
  %25 = load i8, ptr %24, align 1
  %26 = sext i8 %25 to i32
  store i32 %26, ptr %6, align 4
  br label %256

27:                                               ; preds = %2
  %28 = load i32, ptr %7, align 4
  %29 = and i32 %28, 224
  %30 = icmp eq i32 %29, 192
  br i1 %30, label %31, label %65

31:                                               ; preds = %27
  call void @llvm.lifetime.start.p0(i64 1, ptr %8) #13
  %32 = load ptr, ptr %4, align 8
  %33 = getelementptr inbounds i8, ptr %32, i64 1
  %34 = load i8, ptr %33, align 1
  store i8 %34, ptr %8, align 1
  %35 = load i8, ptr %8, align 1
  %36 = zext i8 %35 to i32
  %37 = icmp eq i32 %36, 0
  br i1 %37, label %43, label %38

38:                                               ; preds = %31
  %39 = load i8, ptr %8, align 1
  %40 = zext i8 %39 to i32
  %41 = ashr i32 %40, 6
  %42 = icmp ne i32 %41, 2
  br i1 %42, label %43, label %46

43:                                               ; preds = %38, %31
  %44 = load ptr, ptr %5, align 8
  store i32 2, ptr %44, align 4
  %45 = load i32, ptr %6, align 4
  store i32 %45, ptr %3, align 4
  store i32 1, ptr %9, align 4
  br label %62

46:                                               ; preds = %38
  %47 = load i32, ptr %7, align 4
  %48 = icmp sge i32 %47, 194
  br i1 %48, label %49, label %61

49:                                               ; preds = %46
  %50 = load i32, ptr %7, align 4
  %51 = icmp sle i32 %50, 223
  br i1 %51, label %52, label %61

52:                                               ; preds = %49
  %53 = load i32, ptr %7, align 4
  %54 = and i32 %53, 31
  %55 = shl i32 %54, 6
  %56 = load i8, ptr %8, align 1
  %57 = zext i8 %56 to i32
  %58 = and i32 %57, 63
  %59 = or i32 %55, %58
  store i32 %59, ptr %6, align 4
  %60 = load ptr, ptr %5, align 8
  store i32 2, ptr %60, align 4
  br label %61

61:                                               ; preds = %52, %49, %46
  store i32 0, ptr %9, align 4
  br label %62

62:                                               ; preds = %61, %43
  call void @llvm.lifetime.end.p0(i64 1, ptr %8) #13
  %63 = load i32, ptr %9, align 4
  switch i32 %63, label %262 [
    i32 0, label %64
  ]

64:                                               ; preds = %62
  br label %255

65:                                               ; preds = %27
  %66 = load i32, ptr %7, align 4
  %67 = and i32 %66, 240
  %68 = icmp eq i32 %67, 224
  br i1 %68, label %69, label %148

69:                                               ; preds = %65
  call void @llvm.lifetime.start.p0(i64 1, ptr %10) #13
  %70 = load ptr, ptr %4, align 8
  %71 = getelementptr inbounds i8, ptr %70, i64 1
  %72 = load i8, ptr %71, align 1
  store i8 %72, ptr %10, align 1
  call void @llvm.lifetime.start.p0(i64 1, ptr %11) #13
  store i8 0, ptr %11, align 1
  %73 = load i8, ptr %10, align 1
  %74 = zext i8 %73 to i32
  %75 = icmp eq i32 %74, 0
  br i1 %75, label %81, label %76

76:                                               ; preds = %69
  %77 = load i8, ptr %10, align 1
  %78 = zext i8 %77 to i32
  %79 = ashr i32 %78, 6
  %80 = icmp ne i32 %79, 2
  br i1 %80, label %81, label %84

81:                                               ; preds = %76, %69
  %82 = load ptr, ptr %5, align 8
  store i32 2, ptr %82, align 4
  %83 = load i32, ptr %6, align 4
  store i32 %83, ptr %3, align 4
  store i32 1, ptr %9, align 4
  br label %145

84:                                               ; preds = %76
  %85 = load ptr, ptr %4, align 8
  %86 = getelementptr inbounds i8, ptr %85, i64 2
  %87 = load i8, ptr %86, align 1
  store i8 %87, ptr %11, align 1
  %88 = load i8, ptr %11, align 1
  %89 = zext i8 %88 to i32
  %90 = icmp eq i32 %89, 0
  br i1 %90, label %96, label %91

91:                                               ; preds = %84
  %92 = load i8, ptr %11, align 1
  %93 = zext i8 %92 to i32
  %94 = ashr i32 %93, 6
  %95 = icmp ne i32 %94, 2
  br i1 %95, label %96, label %99

96:                                               ; preds = %91, %84
  %97 = load ptr, ptr %5, align 8
  store i32 3, ptr %97, align 4
  %98 = load i32, ptr %6, align 4
  store i32 %98, ptr %3, align 4
  store i32 1, ptr %9, align 4
  br label %145

99:                                               ; preds = %91
  %100 = load i32, ptr %7, align 4
  %101 = icmp eq i32 %100, 224
  br i1 %101, label %102, label %110

102:                                              ; preds = %99
  %103 = load i8, ptr %10, align 1
  %104 = zext i8 %103 to i32
  %105 = icmp sge i32 %104, 160
  br i1 %105, label %106, label %121

106:                                              ; preds = %102
  %107 = load i8, ptr %10, align 1
  %108 = zext i8 %107 to i32
  %109 = icmp sle i32 %108, 191
  br i1 %109, label %110, label %121

110:                                              ; preds = %106, %99
  %111 = load i32, ptr %7, align 4
  %112 = icmp eq i32 %111, 237
  br i1 %112, label %113, label %124

113:                                              ; preds = %110
  %114 = load i8, ptr %10, align 1
  %115 = zext i8 %114 to i32
  %116 = icmp sge i32 %115, 128
  br i1 %116, label %117, label %121

117:                                              ; preds = %113
  %118 = load i8, ptr %10, align 1
  %119 = zext i8 %118 to i32
  %120 = icmp sle i32 %119, 159
  br i1 %120, label %124, label %121

121:                                              ; preds = %117, %113, %106, %102
  %122 = load ptr, ptr %5, align 8
  store i32 2, ptr %122, align 4
  %123 = load i32, ptr %6, align 4
  store i32 %123, ptr %3, align 4
  store i32 1, ptr %9, align 4
  br label %145

124:                                              ; preds = %117, %110
  %125 = load i32, ptr %7, align 4
  %126 = icmp sge i32 %125, 224
  br i1 %126, label %127, label %144

127:                                              ; preds = %124
  %128 = load i32, ptr %7, align 4
  %129 = icmp sle i32 %128, 239
  br i1 %129, label %130, label %144

130:                                              ; preds = %127
  %131 = load i32, ptr %7, align 4
  %132 = and i32 %131, 15
  %133 = shl i32 %132, 12
  %134 = load i8, ptr %10, align 1
  %135 = zext i8 %134 to i32
  %136 = and i32 %135, 63
  %137 = shl i32 %136, 6
  %138 = or i32 %133, %137
  %139 = load i8, ptr %11, align 1
  %140 = zext i8 %139 to i32
  %141 = and i32 %140, 63
  %142 = or i32 %138, %141
  store i32 %142, ptr %6, align 4
  %143 = load ptr, ptr %5, align 8
  store i32 3, ptr %143, align 4
  br label %144

144:                                              ; preds = %130, %127, %124
  store i32 0, ptr %9, align 4
  br label %145

145:                                              ; preds = %144, %121, %96, %81
  call void @llvm.lifetime.end.p0(i64 1, ptr %11) #13
  call void @llvm.lifetime.end.p0(i64 1, ptr %10) #13
  %146 = load i32, ptr %9, align 4
  switch i32 %146, label %262 [
    i32 0, label %147
  ]

147:                                              ; preds = %145
  br label %254

148:                                              ; preds = %65
  %149 = load i32, ptr %7, align 4
  %150 = and i32 %149, 248
  %151 = icmp eq i32 %150, 240
  br i1 %151, label %152, label %253

152:                                              ; preds = %148
  %153 = load i32, ptr %7, align 4
  %154 = icmp sgt i32 %153, 244
  br i1 %154, label %155, label %157

155:                                              ; preds = %152
  %156 = load i32, ptr %6, align 4
  store i32 %156, ptr %3, align 4
  store i32 1, ptr %9, align 4
  br label %262

157:                                              ; preds = %152
  call void @llvm.lifetime.start.p0(i64 1, ptr %12) #13
  %158 = load ptr, ptr %4, align 8
  %159 = getelementptr inbounds i8, ptr %158, i64 1
  %160 = load i8, ptr %159, align 1
  store i8 %160, ptr %12, align 1
  call void @llvm.lifetime.start.p0(i64 1, ptr %13) #13
  store i8 0, ptr %13, align 1
  call void @llvm.lifetime.start.p0(i64 1, ptr %14) #13
  store i8 0, ptr %14, align 1
  %161 = load i8, ptr %12, align 1
  %162 = zext i8 %161 to i32
  %163 = icmp eq i32 %162, 0
  br i1 %163, label %169, label %164

164:                                              ; preds = %157
  %165 = load i8, ptr %12, align 1
  %166 = zext i8 %165 to i32
  %167 = ashr i32 %166, 6
  %168 = icmp ne i32 %167, 2
  br i1 %168, label %169, label %172

169:                                              ; preds = %164, %157
  %170 = load ptr, ptr %5, align 8
  store i32 2, ptr %170, align 4
  %171 = load i32, ptr %6, align 4
  store i32 %171, ptr %3, align 4
  store i32 1, ptr %9, align 4
  br label %250

172:                                              ; preds = %164
  %173 = load ptr, ptr %4, align 8
  %174 = getelementptr inbounds i8, ptr %173, i64 2
  %175 = load i8, ptr %174, align 1
  store i8 %175, ptr %13, align 1
  %176 = load i8, ptr %13, align 1
  %177 = zext i8 %176 to i32
  %178 = icmp eq i32 %177, 0
  br i1 %178, label %184, label %179

179:                                              ; preds = %172
  %180 = load i8, ptr %13, align 1
  %181 = zext i8 %180 to i32
  %182 = ashr i32 %181, 6
  %183 = icmp ne i32 %182, 2
  br i1 %183, label %184, label %187

184:                                              ; preds = %179, %172
  %185 = load ptr, ptr %5, align 8
  store i32 3, ptr %185, align 4
  %186 = load i32, ptr %6, align 4
  store i32 %186, ptr %3, align 4
  store i32 1, ptr %9, align 4
  br label %250

187:                                              ; preds = %179
  %188 = load ptr, ptr %4, align 8
  %189 = getelementptr inbounds i8, ptr %188, i64 3
  %190 = load i8, ptr %189, align 1
  store i8 %190, ptr %14, align 1
  %191 = load i8, ptr %14, align 1
  %192 = zext i8 %191 to i32
  %193 = icmp eq i32 %192, 0
  br i1 %193, label %199, label %194

194:                                              ; preds = %187
  %195 = load i8, ptr %14, align 1
  %196 = zext i8 %195 to i32
  %197 = ashr i32 %196, 6
  %198 = icmp ne i32 %197, 2
  br i1 %198, label %199, label %202

199:                                              ; preds = %194, %187
  %200 = load ptr, ptr %5, align 8
  store i32 4, ptr %200, align 4
  %201 = load i32, ptr %6, align 4
  store i32 %201, ptr %3, align 4
  store i32 1, ptr %9, align 4
  br label %250

202:                                              ; preds = %194
  %203 = load i32, ptr %7, align 4
  %204 = icmp eq i32 %203, 240
  br i1 %204, label %205, label %213

205:                                              ; preds = %202
  %206 = load i8, ptr %12, align 1
  %207 = zext i8 %206 to i32
  %208 = icmp sge i32 %207, 144
  br i1 %208, label %209, label %224

209:                                              ; preds = %205
  %210 = load i8, ptr %12, align 1
  %211 = zext i8 %210 to i32
  %212 = icmp sle i32 %211, 191
  br i1 %212, label %213, label %224

213:                                              ; preds = %209, %202
  %214 = load i32, ptr %7, align 4
  %215 = icmp eq i32 %214, 244
  br i1 %215, label %216, label %227

216:                                              ; preds = %213
  %217 = load i8, ptr %12, align 1
  %218 = zext i8 %217 to i32
  %219 = icmp sge i32 %218, 128
  br i1 %219, label %220, label %224

220:                                              ; preds = %216
  %221 = load i8, ptr %12, align 1
  %222 = zext i8 %221 to i32
  %223 = icmp sle i32 %222, 143
  br i1 %223, label %227, label %224

224:                                              ; preds = %220, %216, %209, %205
  %225 = load ptr, ptr %5, align 8
  store i32 2, ptr %225, align 4
  %226 = load i32, ptr %6, align 4
  store i32 %226, ptr %3, align 4
  store i32 1, ptr %9, align 4
  br label %250

227:                                              ; preds = %220, %213
  %228 = load i32, ptr %7, align 4
  %229 = icmp sge i32 %228, 240
  br i1 %229, label %230, label %249

230:                                              ; preds = %227
  %231 = load i32, ptr %7, align 4
  %232 = and i32 %231, 7
  %233 = shl i32 %232, 18
  %234 = load i8, ptr %12, align 1
  %235 = zext i8 %234 to i32
  %236 = and i32 %235, 63
  %237 = shl i32 %236, 12
  %238 = or i32 %233, %237
  %239 = load i8, ptr %13, align 1
  %240 = zext i8 %239 to i32
  %241 = and i32 %240, 63
  %242 = shl i32 %241, 6
  %243 = or i32 %238, %242
  %244 = load i8, ptr %14, align 1
  %245 = zext i8 %244 to i32
  %246 = and i32 %245, 63
  %247 = or i32 %243, %246
  store i32 %247, ptr %6, align 4
  %248 = load ptr, ptr %5, align 8
  store i32 4, ptr %248, align 4
  br label %249

249:                                              ; preds = %230, %227
  store i32 0, ptr %9, align 4
  br label %250

250:                                              ; preds = %249, %224, %199, %184, %169
  call void @llvm.lifetime.end.p0(i64 1, ptr %14) #13
  call void @llvm.lifetime.end.p0(i64 1, ptr %13) #13
  call void @llvm.lifetime.end.p0(i64 1, ptr %12) #13
  %251 = load i32, ptr %9, align 4
  switch i32 %251, label %262 [
    i32 0, label %252
  ]

252:                                              ; preds = %250
  br label %253

253:                                              ; preds = %252, %148
  br label %254

254:                                              ; preds = %253, %147
  br label %255

255:                                              ; preds = %254, %64
  br label %256

256:                                              ; preds = %255, %22
  %257 = load i32, ptr %6, align 4
  %258 = icmp sgt i32 %257, 1114111
  br i1 %258, label %259, label %260

259:                                              ; preds = %256
  store i32 63, ptr %6, align 4
  br label %260

260:                                              ; preds = %259, %256
  %261 = load i32, ptr %6, align 4
  store i32 %261, ptr %3, align 4
  store i32 1, ptr %9, align 4
  br label %262

262:                                              ; preds = %260, %250, %155, %145, %62
  call void @llvm.lifetime.end.p0(i64 4, ptr %7) #13
  call void @llvm.lifetime.end.p0(i64 4, ptr %6) #13
  %263 = load i32, ptr %3, align 4
  ret i32 %263
}