; Function Attrs: mustprogress nofree norecurse nosync nounwind willreturn memory(argmem: readwrite) uwtable
define range(i32 -128, 2097152) i32 @GetCodepoint(ptr noundef readonly captures(none) %0, ptr noundef writeonly captures(none) initializes((0, 4)) %1) local_unnamed_addr #0 {
  %3 = load i8, ptr %0, align 1
  %4 = zext i8 %3 to i32
  store i32 1, ptr %1, align 4
  %5 = icmp sgt i8 %3, -1
  br i1 %5, label %6, label %9

6:                                                ; preds = %2
  %7 = load i8, ptr %0, align 1
  %8 = sext i8 %7 to i32
  br label %.thread130

9:                                                ; preds = %2
  %10 = and i32 %4, 224
  %11 = icmp eq i32 %10, 192
  br i1 %11, label %12, label %24

12:                                               ; preds = %9
  %13 = getelementptr inbounds nuw i8, ptr %0, i64 1
  %14 = load i8, ptr %13, align 1
  %15 = zext i8 %14 to i32
  %.mask116 = and i32 %15, 192
  %.not115 = icmp eq i32 %.mask116, 128
  br i1 %.not115, label %16, label %23

16:                                               ; preds = %12
  %17 = add nsw i8 %3, 62
  %or.cond = icmp ult i8 %17, 30
  br i1 %or.cond, label %18, label %.thread130

18:                                               ; preds = %16
  %19 = shl nuw nsw i32 %4, 6
  %20 = and i32 %19, 1984
  %21 = and i32 %15, 63
  %22 = or disjoint i32 %21, %20
  store i32 2, ptr %1, align 4
  br label %.thread130

23:                                               ; preds = %12
  store i32 2, ptr %1, align 4
  br label %.thread130

24:                                               ; preds = %9
  %25 = and i32 %4, 240
  %26 = icmp eq i32 %25, 224
  br i1 %26, label %27, label %53

27:                                               ; preds = %24
  %28 = getelementptr inbounds nuw i8, ptr %0, i64 1
  %29 = load i8, ptr %28, align 1
  %30 = zext i8 %29 to i32
  %.mask112 = and i32 %30, 192
  %.not111 = icmp eq i32 %.mask112, 128
  br i1 %.not111, label %32, label %31

31:                                               ; preds = %27
  store i32 2, ptr %1, align 4
  br label %.thread130

32:                                               ; preds = %27
  %33 = getelementptr inbounds nuw i8, ptr %0, i64 2
  %34 = load i8, ptr %33, align 1
  %35 = zext i8 %34 to i32
  %.mask114 = and i32 %35, 192
  %.not113 = icmp eq i32 %.mask114, 128
  br i1 %.not113, label %37, label %36

36:                                               ; preds = %32
  store i32 3, ptr %1, align 4
  br label %.thread130

37:                                               ; preds = %32
  %38 = icmp ne i8 %3, -32
  %39 = and i8 %29, -32
  %or.cond6 = icmp eq i8 %39, -96
  %or.cond120 = or i1 %38, %or.cond6
  br i1 %or.cond120, label %40, label %42

40:                                               ; preds = %37
  %41 = icmp ne i8 %3, -19
  %or.cond9 = icmp slt i8 %29, -96
  %or.cond121 = or i1 %41, %or.cond9
  br i1 %or.cond121, label %43, label %42

42:                                               ; preds = %40, %37
  store i32 2, ptr %1, align 4
  br label %.thread130

43:                                               ; preds = %40
  %44 = and i8 %3, -16
  %or.cond11 = icmp eq i8 %44, -32
  br i1 %or.cond11, label %45, label %.thread130

45:                                               ; preds = %43
  %46 = shl nuw nsw i32 %4, 12
  %47 = and i32 %46, 61440
  %48 = shl nuw nsw i32 %30, 6
  %49 = and i32 %48, 4032
  %50 = or disjoint i32 %49, %47
  %51 = and i32 %35, 63
  %52 = or disjoint i32 %50, %51
  store i32 3, ptr %1, align 4
  br label %.thread130

53:                                               ; preds = %24
  %54 = and i32 %4, 248
  %55 = icmp ne i32 %54, 240
  %56 = icmp samesign ugt i8 %3, -12
  %or.cond141 = select i1 %55, i1 true, i1 %56
  br i1 %or.cond141, label %.thread130, label %57

57:                                               ; preds = %53
  %58 = getelementptr inbounds nuw i8, ptr %0, i64 1
  %59 = load i8, ptr %58, align 1
  %60 = zext i8 %59 to i32
  %.mask = and i32 %60, 192
  %.not = icmp eq i32 %.mask, 128
  br i1 %.not, label %62, label %61

61:                                               ; preds = %57
  store i32 2, ptr %1, align 4
  br label %.thread130

62:                                               ; preds = %57
  %63 = getelementptr inbounds nuw i8, ptr %0, i64 2
  %64 = load i8, ptr %63, align 1
  %65 = zext i8 %64 to i32
  %.mask108 = and i32 %65, 192
  %.not107 = icmp eq i32 %.mask108, 128
  br i1 %.not107, label %67, label %66

66:                                               ; preds = %62
  store i32 3, ptr %1, align 4
  br label %.thread130

67:                                               ; preds = %62
  %68 = getelementptr inbounds nuw i8, ptr %0, i64 3
  %69 = load i8, ptr %68, align 1
  %70 = zext i8 %69 to i32
  %.mask110 = and i32 %70, 192
  %.not109 = icmp eq i32 %.mask110, 128
  br i1 %.not109, label %72, label %71

71:                                               ; preds = %67
  store i32 4, ptr %1, align 4
  br label %.thread130

72:                                               ; preds = %67
  %73 = icmp ne i8 %3, -16
  %74 = add i8 %59, 112
  %or.cond14 = icmp ult i8 %74, 48
  %or.cond125 = or i1 %73, %or.cond14
  br i1 %or.cond125, label %75, label %77

75:                                               ; preds = %72
  %76 = icmp ne i8 %3, -12
  %or.cond17 = icmp slt i8 %59, -112
  %or.cond126 = or i1 %76, %or.cond17
  br i1 %or.cond126, label %78, label %77

77:                                               ; preds = %75, %72
  store i32 2, ptr %1, align 4
  br label %.thread130

78:                                               ; preds = %75
  %79 = icmp samesign ugt i8 %3, -17
  br i1 %79, label %80, label %.thread130

80:                                               ; preds = %78
  %81 = shl nuw nsw i32 %4, 18
  %82 = and i32 %81, 1835008
  %83 = shl nuw nsw i32 %60, 12
  %84 = and i32 %83, 258048
  %85 = or disjoint i32 %84, %82
  %.fr = freeze i32 %85
  %86 = shl nuw nsw i32 %65, 6
  %87 = and i32 %86, 4032
  %88 = and i32 %70, 63
  %89 = or disjoint i32 %87, %88
  %90 = or i32 %89, %.fr
  store i32 4, ptr %1, align 4
  %91 = icmp ugt i32 %.fr, 1114111
  %spec.select = select i1 %91, i32 63, i32 %90
  br label %.thread130

.thread130:                                       ; preds = %80, %16, %18, %78, %43, %45, %53, %6, %77, %71, %66, %61, %42, %36, %31, %23
  %.1 = phi i32 [ 63, %23 ], [ 63, %31 ], [ 63, %36 ], [ 63, %42 ], [ 63, %61 ], [ 63, %66 ], [ 63, %71 ], [ 63, %77 ], [ 63, %78 ], [ 63, %43 ], [ %52, %45 ], [ 63, %53 ], [ %8, %6 ], [ 63, %16 ], [ %22, %18 ], [ %spec.select, %80 ]
  ret i32 %.1
}